; ModuleID = '52/2074.c'
source_filename = "52/2074.c"
target datalayout = "e-m:e-p270:32:32-p271:32:32-p272:64:64-i64:64-f80:128-n8:16:32:64-S128"
target triple = "x86_64-pc-linux-gnu"

@.str = private unnamed_addr constant [5 x i8] c"%d%d\00", align 1
@.str.1 = private unnamed_addr constant [3 x i8] c"%d\00", align 1
@.str.2 = private unnamed_addr constant [4 x i8] c" %d\00", align 1

; Function Attrs: noinline nounwind uwtable
define dso_local i32 @main() #0 {
  %1 = alloca i32, align 4
  %2 = alloca i32, align 4
  %3 = alloca i32, align 4
  %4 = alloca i32*, align 8
  %5 = alloca i32, align 4
  %6 = alloca i32, align 4
  %7 = alloca i32, align 4
  store i32 0, i32* %1, align 4
  %8 = call i32 (i8*, ...) @__isoc99_scanf(i8* getelementptr inbounds ([5 x i8], [5 x i8]* @.str, i64 0, i64 0), i32* %2, i32* %3)
  %9 = load i32, i32* %2, align 4
  %10 = load i32, i32* %3, align 4
  %11 = add nsw i32 %9, %10
  %12 = sext i32 %11 to i64
  %13 = mul i64 4, %12
  %14 = call noalias i8* @malloc(i64 %13) #3
  %15 = bitcast i8* %14 to i32*
  store i32* %15, i32** %4, align 8
  %16 = load i32, i32* %3, align 4
  store i32 %16, i32* %5, align 4
  br label %17

17:                                               ; preds = %29, %0
  %18 = load i32, i32* %5, align 4
  %19 = load i32, i32* %3, align 4
  %20 = load i32, i32* %2, align 4
  %21 = add nsw i32 %19, %20
  %22 = icmp slt i32 %18, %21
  br i1 %22, label %23, label %32

23:                                               ; preds = %17
  %24 = load i32*, i32** %4, align 8
  %25 = load i32, i32* %5, align 4
  %26 = sext i32 %25 to i64
  %27 = getelementptr inbounds i32, i32* %24, i64 %26
  %28 = call i32 (i8*, ...) @__isoc99_scanf(i8* getelementptr inbounds ([3 x i8], [3 x i8]* @.str.1, i64 0, i64 0), i32* %27)
  br label %29

29:                                               ; preds = %23
  %30 = load i32, i32* %5, align 4
  %31 = add nsw i32 %30, 1
  store i32 %31, i32* %5, align 4
  br label %17

32:                                               ; preds = %17
  %33 = load i32, i32* %2, align 4
  store i32 %33, i32* %6, align 4
  br label %34

34:                                               ; preds = %52, %32
  %35 = load i32, i32* %6, align 4
  %36 = load i32, i32* %3, align 4
  %37 = load i32, i32* %2, align 4
  %38 = add nsw i32 %36, %37
  %39 = icmp slt i32 %35, %38
  br i1 %39, label %40, label %55

40:                                               ; preds = %34
  %41 = load i32*, i32** %4, align 8
  %42 = load i32, i32* %6, align 4
  %43 = sext i32 %42 to i64
  %44 = getelementptr inbounds i32, i32* %41, i64 %43
  %45 = load i32, i32* %44, align 4
  %46 = load i32*, i32** %4, align 8
  %47 = load i32, i32* %6, align 4
  %48 = load i32, i32* %2, align 4
  %49 = sub nsw i32 %47, %48
  %50 = sext i32 %49 to i64
  %51 = getelementptr inbounds i32, i32* %46, i64 %50
  store i32 %45, i32* %51, align 4
  br label %52

52:                                               ; preds = %40
  %53 = load i32, i32* %6, align 4
  %54 = add nsw i32 %53, 1
  store i32 %54, i32* %6, align 4
  br label %34

55:                                               ; preds = %34
  %56 = load i32*, i32** %4, align 8
  %57 = getelementptr inbounds i32, i32* %56, i64 0
  %58 = load i32, i32* %57, align 4
  %59 = call i32 (i8*, ...) @printf(i8* getelementptr inbounds ([3 x i8], [3 x i8]* @.str.1, i64 0, i64 0), i32 %58)
  store i32 1, i32* %7, align 4
  br label %60

60:                                               ; preds = %71, %55
  %61 = load i32, i32* %7, align 4
  %62 = load i32, i32* %2, align 4
  %63 = icmp slt i32 %61, %62
  br i1 %63, label %64, label %74

64:                                               ; preds = %60
  %65 = load i32*, i32** %4, align 8
  %66 = load i32, i32* %7, align 4
  %67 = sext i32 %66 to i64
  %68 = getelementptr inbounds i32, i32* %65, i64 %67
  %69 = load i32, i32* %68, align 4
  %70 = call i32 (i8*, ...) @printf(i8* getelementptr inbounds ([4 x i8], [4 x i8]* @.str.2, i64 0, i64 0), i32 %69)
  br label %71

71:                                               ; preds = %64
  %72 = load i32, i32* %7, align 4
  %73 = add nsw i32 %72, 1
  store i32 %73, i32* %7, align 4
  br label %60

74:                                               ; preds = %60
  %75 = load i32*, i32** %4, align 8
  %76 = bitcast i32* %75 to i8*
  call void @free(i8* %76) #3
  ret i32 0
}

declare dso_local i32 @__isoc99_scanf(i8*, ...) #1

; Function Attrs: nounwind
declare dso_local noalias i8* @malloc(i64) #2

declare dso_local i32 @printf(i8*, ...) #1

; Function Attrs: nounwind
declare dso_local void @free(i8*) #2


!llvm.module.flags = !{!0}
!llvm.ident = !{!1}

!0 = !{i32 1, !"wchar_size", i32 4}
!1 = !{!"clang version 10.0.0-4ubuntu1 "}
